target datalayout = "e-m:e-p270:32:32-p271:32:32-p272:64:64-i64:64-i128:128-f80:128-n8:16:32:64-S128"
target triple = "x86_64-unknown-linux-gnu"

%"class.std::basic_ostream" = type { ptr, %"class.std::basic_ios" }
%"class.std::basic_ios" = type { %"class.std::ios_base", ptr, i8, i8, ptr, ptr, ptr, ptr }
%"class.std::ios_base" = type { ptr, i64, i64, i32, i32, i32, ptr, %"struct.std::ios_base::_Words", [8 x %"struct.std::ios_base::_Words"], i32, ptr, %"class.std::locale" }
%"struct.std::ios_base::_Words" = type { ptr, i64 }
%"class.std::locale" = type { ptr }
%class.opt_stream_buffer = type { ptr, i32, i32 }

@_ZSt4cerr = external global %"class.std::basic_ostream", align 8
@.str = private unnamed_addr constant [13 x i8] c"(error line \00", align 1
@.str.7 = private unnamed_addr constant [20 x i8] c" \22unexpected char: \00", align 1
@.str.8 = private unnamed_addr constant [5 x i8] c"\22 )\0A\00", align 1

; Function Attrs: mustprogress nounwind uwtable
define linkonce_odr hidden noundef i32 @_ZNK17opt_stream_buffer4lineEv(ptr noundef nonnull align 8 dereferenceable(16) %this) #4 comdat align 2 {
entry:
  %this.addr = alloca ptr, align 8
  store ptr %this, ptr %this.addr, align 8
  %this1 = load ptr, ptr %this.addr, align 8
  %m_line = getelementptr inbounds %class.opt_stream_buffer, ptr %this1, i32 0, i32 2
  %0 = load i32, ptr %m_line, align 4
  ret i32 %0
}

; Function Attrs: mustprogress uwtable
define linkonce_odr hidden void @_ZN17opt_stream_buffer4nextEv(ptr noundef nonnull align 8 dereferenceable(16) %this) #5 comdat align 2 {
entry:
  %this.addr = alloca ptr, align 8
  store ptr %this, ptr %this.addr, align 8
  %this1 = load ptr, ptr %this.addr, align 8
  %m_stream = getelementptr inbounds %class.opt_stream_buffer, ptr %this1, i32 0, i32 0
  %0 = load ptr, ptr %m_stream, align 8
  %call = call noundef i32 @_ZNSi3getEv(ptr noundef nonnull align 8 dereferenceable(16) %0)
  %m_val = getelementptr inbounds %class.opt_stream_buffer, ptr %this1, i32 0, i32 1
  store i32 %call, ptr %m_val, align 8
  ret void
}

; Function Attrs: mustprogress nounwind uwtable
define linkonce_odr hidden noundef i32 @_ZNK17opt_stream_buffer2chEv(ptr noundef nonnull align 8 dereferenceable(16) %this) #4 comdat align 2 {
entry:
  %this.addr = alloca ptr, align 8
  store ptr %this, ptr %this.addr, align 8
  %this1 = load ptr, ptr %this.addr, align 8
  %m_val = getelementptr inbounds %class.opt_stream_buffer, ptr %this1, i32 0, i32 1
  %0 = load i32, ptr %m_val, align 8
  ret i32 %0
}

; Function Attrs: mustprogress uwtable
define linkonce_odr hidden void @_ZN17opt_stream_buffer15skip_whitespaceEv(ptr noundef nonnull align 8 dereferenceable(16) %this) #5 comdat align 2 {
entry:
  %this.addr = alloca ptr, align 8
  store ptr %this, ptr %this.addr, align 8
  %this1 = load ptr, ptr %this.addr, align 8
  br label %while.cond

while.cond:                                       ; preds = %if.end, %entry
  %call = call noundef i32 @_ZNK17opt_stream_buffer2chEv(ptr noundef nonnull align 8 dereferenceable(16) %this1)
  %cmp = icmp sge i32 %call, 9
  br i1 %cmp, label %land.lhs.true, label %lor.rhs

land.lhs.true:                                    ; preds = %while.cond
  %call2 = call noundef i32 @_ZNK17opt_stream_buffer2chEv(ptr noundef nonnull align 8 dereferenceable(16) %this1)
  %cmp3 = icmp sle i32 %call2, 13
  br i1 %cmp3, label %lor.end, label %lor.rhs

lor.rhs:                                          ; preds = %land.lhs.true, %while.cond
  %call4 = call noundef i32 @_ZNK17opt_stream_buffer2chEv(ptr noundef nonnull align 8 dereferenceable(16) %this1)
  %cmp5 = icmp eq i32 %call4, 32
  br label %lor.end

lor.end:                                          ; preds = %lor.rhs, %land.lhs.true
  %0 = phi i1 [ true, %land.lhs.true ], [ %cmp5, %lor.rhs ]
  br i1 %0, label %while.body, label %while.end

while.body:                                       ; preds = %lor.end
  %call6 = call noundef i32 @_ZNK17opt_stream_buffer2chEv(ptr noundef nonnull align 8 dereferenceable(16) %this1)
  %cmp7 = icmp eq i32 %call6, 10
  br i1 %cmp7, label %if.then, label %if.end

if.then:                                          ; preds = %while.body
  %m_line = getelementptr inbounds %class.opt_stream_buffer, ptr %this1, i32 0, i32 2
  %1 = load i32, ptr %m_line, align 4
  %inc = add i32 %1, 1
  store i32 %inc, ptr %m_line, align 4
  br label %if.end

if.end:                                           ; preds = %if.then, %while.body
  call void @_ZN17opt_stream_buffer4nextEv(ptr noundef nonnull align 8 dereferenceable(16) %this1)
  br label %while.cond, !llvm.loop !6

while.end:                                        ; preds = %lor.end
  ret void
}

; Function Attrs: mustprogress uwtable
define hidden noundef i32 @_ZN17opt_stream_buffer9parse_intEv(ptr noundef nonnull align 8 dereferenceable(16) %this) #5 align 2 {
entry:
  %this.addr = alloca ptr, align 8
  %val = alloca i32, align 4
  %neg = alloca i8, align 1
  store ptr %this, ptr %this.addr, align 8
  %this1 = load ptr, ptr %this.addr, align 8
  store i32 0, ptr %val, align 4
  store i8 0, ptr %neg, align 1
  call void @_ZN17opt_stream_buffer15skip_whitespaceEv(ptr noundef nonnull align 8 dereferenceable(16) %this1)
  %call = call noundef i32 @_ZNK17opt_stream_buffer2chEv(ptr noundef nonnull align 8 dereferenceable(16) %this1)
  %cmp = icmp eq i32 %call, 45
  br i1 %cmp, label %if.then, label %if.else

if.then:                                          ; preds = %entry
  store i8 1, ptr %neg, align 1
  call void @_ZN17opt_stream_buffer4nextEv(ptr noundef nonnull align 8 dereferenceable(16) %this1)
  br label %if.end5

if.else:                                          ; preds = %entry
  %call2 = call noundef i32 @_ZNK17opt_stream_buffer2chEv(ptr noundef nonnull align 8 dereferenceable(16) %this1)
  %cmp3 = icmp eq i32 %call2, 43
  br i1 %cmp3, label %if.then4, label %if.end

if.then4:                                         ; preds = %if.else
  call void @_ZN17opt_stream_buffer4nextEv(ptr noundef nonnull align 8 dereferenceable(16) %this1)
  br label %if.end

if.end:                                           ; preds = %if.then4, %if.else
  br label %if.end5

if.end5:                                          ; preds = %if.end, %if.then
  %call6 = call noundef i32 @_ZNK17opt_stream_buffer2chEv(ptr noundef nonnull align 8 dereferenceable(16) %this1)
  %cmp7 = icmp slt i32 %call6, 48
  br i1 %cmp7, label %if.then10, label %lor.lhs.false

lor.lhs.false:                                    ; preds = %if.end5
  %call8 = call noundef i32 @_ZNK17opt_stream_buffer2chEv(ptr noundef nonnull align 8 dereferenceable(16) %this1)
  %cmp9 = icmp sgt i32 %call8, 57
  br i1 %cmp9, label %if.then10, label %if.end18

if.then10:                                        ; preds = %lor.lhs.false, %if.end5
  %call11 = call noundef nonnull align 8 dereferenceable(8) ptr @_ZStlsISt11char_traitsIcEERSt13basic_ostreamIcT_ES5_PKc(ptr noundef nonnull align 8 dereferenceable(8) @_ZSt4cerr, ptr noundef @.str)
  %call12 = call noundef i32 @_ZNK17opt_stream_buffer4lineEv(ptr noundef nonnull align 8 dereferenceable(16) %this1)
  %call13 = call noundef nonnull align 8 dereferenceable(8) ptr @_ZNSolsEj(ptr noundef nonnull align 8 dereferenceable(8) %call11, i32 noundef %call12)
  %call14 = call noundef nonnull align 8 dereferenceable(8) ptr @_ZStlsISt11char_traitsIcEERSt13basic_ostreamIcT_ES5_PKc(ptr noundef nonnull align 8 dereferenceable(8) %call13, ptr noundef @.str.7)
  %call15 = call noundef i32 @_ZNK17opt_stream_buffer2chEv(ptr noundef nonnull align 8 dereferenceable(16) %this1)
  %conv = trunc i32 %call15 to i8
  %call16 = call noundef nonnull align 8 dereferenceable(8) ptr @_ZStlsISt11char_traitsIcEERSt13basic_ostreamIcT_ES5_c(ptr noundef nonnull align 8 dereferenceable(8) %call14, i8 noundef signext %conv)
  %call17 = call noundef nonnull align 8 dereferenceable(8) ptr @_ZStlsISt11char_traitsIcEERSt13basic_ostreamIcT_ES5_PKc(ptr noundef nonnull align 8 dereferenceable(8) %call16, ptr noundef @.str.8)
  call void @exit(i32 noundef 3) #15
  unreachable

if.end18:                                         ; preds = %lor.lhs.false
  br label %while.cond

while.cond:                                       ; preds = %while.body, %if.end18
  %call19 = call noundef i32 @_ZNK17opt_stream_buffer2chEv(ptr noundef nonnull align 8 dereferenceable(16) %this1)
  %cmp20 = icmp sge i32 %call19, 48
  br i1 %cmp20, label %land.rhs, label %land.end

land.rhs:                                         ; preds = %while.cond
  %call21 = call noundef i32 @_ZNK17opt_stream_buffer2chEv(ptr noundef nonnull align 8 dereferenceable(16) %this1)
  %cmp22 = icmp sle i32 %call21, 57
  br label %land.end

land.end:                                         ; preds = %land.rhs, %while.cond
  %0 = phi i1 [ false, %while.cond ], [ %cmp22, %land.rhs ]
  br i1 %0, label %while.body, label %while.end

while.body:                                       ; preds = %land.end
  %1 = load i32, ptr %val, align 4
  %mul = mul nsw i32 %1, 10
  %call23 = call noundef i32 @_ZNK17opt_stream_buffer2chEv(ptr noundef nonnull align 8 dereferenceable(16) %this1)
  %sub = sub nsw i32 %call23, 48
  %add = add nsw i32 %mul, %sub
  store i32 %add, ptr %val, align 4
  call void @_ZN17opt_stream_buffer4nextEv(ptr noundef nonnull align 8 dereferenceable(16) %this1)
  br label %while.cond, !llvm.loop !9

while.end:                                        ; preds = %land.end
  %2 = load i8, ptr %neg, align 1
  %tobool = trunc i8 %2 to i1
  br i1 %tobool, label %cond.true, label %cond.false

cond.true:                                        ; preds = %while.end
  %3 = load i32, ptr %val, align 4
  %sub24 = sub nsw i32 0, %3
  br label %cond.end

cond.false:                                       ; preds = %while.end
  %4 = load i32, ptr %val, align 4
  br label %cond.end

cond.end:                                         ; preds = %cond.false, %cond.true
  %cond = phi i32 [ %sub24, %cond.true ], [ %4, %cond.false ]
  ret i32 %cond
}