; Function Attrs: mustprogress uwtable
define hidden noundef i32 @_ZN17opt_stream_buffer9parse_intEv(ptr nocapture noundef nonnull align 8 dereferenceable(16) %this) local_unnamed_addr #3 align 2 {
entry:
  %m_val.i.i = getelementptr inbounds i8, ptr %this, i64 8
  %0 = load i32, ptr %m_val.i.i, align 8
  %cmp8.i = icmp sgt i32 %0, 8
  br i1 %cmp8.i, label %land.lhs.true.lr.ph.i, label %if.end5

land.lhs.true.lr.ph.i:                            ; preds = %entry
  %m_line.i = getelementptr inbounds i8, ptr %this, i64 12
  br label %land.lhs.true.i

land.lhs.true.i:                                  ; preds = %if.end.i, %land.lhs.true.lr.ph.i
  %.pr = phi i32 [ %0, %land.lhs.true.lr.ph.i ], [ %call.i.i, %if.end.i ]
  %cmp3.i = icmp ult i32 %.pr, 14
  br i1 %cmp3.i, label %while.body.i, label %lor.rhs.i

lor.rhs.i:                                        ; preds = %land.lhs.true.i
  switch i32 %.pr, label %if.end5 [
    i32 32, label %if.end.i
    i32 45, label %if.end5.sink.split.loopexit
    i32 43, label %if.end5.sink.split
  ]

while.body.i:                                     ; preds = %land.lhs.true.i
  %cmp7.i = icmp eq i32 %.pr, 10
  br i1 %cmp7.i, label %if.then.i, label %if.end.i

if.then.i:                                        ; preds = %while.body.i
  %1 = load i32, ptr %m_line.i, align 4
  %inc.i = add i32 %1, 1
  store i32 %inc.i, ptr %m_line.i, align 4
  br label %if.end.i

if.end.i:                                         ; preds = %lor.rhs.i, %if.then.i, %while.body.i
  %2 = load ptr, ptr %this, align 8
  %call.i.i = tail call noundef i32 @_ZNSi3getEv(ptr noundef nonnull align 8 dereferenceable(16) %2)
  store i32 %call.i.i, ptr %m_val.i.i, align 8
  %cmp.i = icmp sgt i32 %call.i.i, 8
  br i1 %cmp.i, label %land.lhs.true.i, label %if.end5, !llvm.loop !4

if.end5.sink.split.loopexit:                      ; preds = %lor.rhs.i
  br label %if.end5.sink.split

if.end5.sink.split:                               ; preds = %lor.rhs.i, %if.end5.sink.split.loopexit
  %cmp17.ph = phi i1 [ true, %if.end5.sink.split.loopexit ], [ false, %lor.rhs.i ]
  %3 = load ptr, ptr %this, align 8
  %call.i = tail call noundef i32 @_ZNSi3getEv(ptr noundef nonnull align 8 dereferenceable(16) %3)
  store i32 %call.i, ptr %m_val.i.i, align 8
  br label %if.end5

if.end5:                                          ; preds = %if.end.i, %lor.rhs.i, %if.end5.sink.split, %entry
  %.pr22 = phi i32 [ %0, %entry ], [ %call.i, %if.end5.sink.split ], [ %call.i.i, %if.end.i ], [ %.pr, %lor.rhs.i ]
  %cmp17 = phi i1 [ false, %entry ], [ %cmp17.ph, %if.end5.sink.split ], [ false, %lor.rhs.i ], [ false, %if.end.i ]
  %4 = add i32 %.pr22, -58
  %or.cond = icmp ult i32 %4, -10
  br i1 %or.cond, label %if.then10, label %while.body

if.then10:                                        ; preds = %if.end5
  %call11 = tail call noundef nonnull align 8 dereferenceable(8) ptr @_ZStlsISt11char_traitsIcEERSt13basic_ostreamIcT_ES5_PKc(ptr noundef nonnull align 8 dereferenceable(8) @_ZSt4cerr, ptr noundef nonnull @.str)
  %m_line.i9 = getelementptr inbounds i8, ptr %this, i64 12
  %5 = load i32, ptr %m_line.i9, align 4
  %call13 = tail call noundef nonnull align 8 dereferenceable(8) ptr @_ZNSolsEj(ptr noundef nonnull align 8 dereferenceable(8) %call11, i32 noundef %5)
  %call14 = tail call noundef nonnull align 8 dereferenceable(8) ptr @_ZStlsISt11char_traitsIcEERSt13basic_ostreamIcT_ES5_PKc(ptr noundef nonnull align 8 dereferenceable(8) %call13, ptr noundef nonnull @.str.7)
  %6 = load i32, ptr %m_val.i.i, align 8
  %conv = trunc i32 %6 to i8
  %call16 = tail call noundef nonnull align 8 dereferenceable(8) ptr @_ZStlsISt11char_traitsIcEERSt13basic_ostreamIcT_ES5_c(ptr noundef nonnull align 8 dereferenceable(8) %call14, i8 noundef signext %conv)
  %call17 = tail call noundef nonnull align 8 dereferenceable(8) ptr @_ZStlsISt11char_traitsIcEERSt13basic_ostreamIcT_ES5_PKc(ptr noundef nonnull align 8 dereferenceable(8) %call16, ptr noundef nonnull @.str.8)
  tail call void @exit(i32 noundef 3) #15
  unreachable

while.body:                                       ; preds = %if.end5, %while.body
  %val.025 = phi i32 [ %add, %while.body ], [ 0, %if.end5 ]
  %7 = phi i32 [ %call.i14, %while.body ], [ %.pr22, %if.end5 ]
  %mul = mul nsw i32 %val.025, 10
  %sub = add nsw i32 %7, -48
  %add = add nsw i32 %sub, %mul
  %8 = load ptr, ptr %this, align 8
  %call.i14 = tail call noundef i32 @_ZNSi3getEv(ptr noundef nonnull align 8 dereferenceable(16) %8)
  store i32 %call.i14, ptr %m_val.i.i, align 8
  %9 = add i32 %call.i14, -48
  %or.cond23 = icmp ult i32 %9, 10
  br i1 %or.cond23, label %while.body, label %while.end, !llvm.loop !9

while.end:                                        ; preds = %while.body
  %sub24 = sub nsw i32 0, %add
  %cond = select i1 %cmp17, i32 %sub24, i32 %add
  ret i32 %cond
}